; Function Attrs: mustprogress nounwind uwtable
define i32 @_ZNK5boost4urls14authority_view17host_ipv4_addressEv(ptr nocapture noundef nonnull readonly align 8 dereferenceable(184) %0) local_unnamed_addr #3 align 2 {
  %2 = alloca %"class.boost::urls::ipv4_address", align 4
  %3 = alloca %"struct.std::array", align 4
  %4 = getelementptr inbounds nuw i8, ptr %0, i64 172
  %5 = load i32, ptr %4, align 4, !tbaa !72
  %.not = icmp eq i32 %5, 2
  br i1 %.not, label %6, label %9

6:                                                ; preds = %1
  call void @llvm.lifetime.start.p0(i64 4, ptr nonnull %3) #28
  %7 = getelementptr inbounds nuw i8, ptr %0, i64 152
  %8 = load i32, ptr %7, align 8
  store i32 %8, ptr %3, align 4
  call void @_ZN5boost4urls12ipv4_addressC1ERKSt5arrayIhLm4EE(ptr noundef nonnull align 4 dereferenceable(4) %2, ptr noundef nonnull align 1 dereferenceable(4) %3) #28
  call void @llvm.lifetime.end.p0(i64 4, ptr nonnull %3) #28
  %.pre = load i32, ptr %2, align 4
  br label %9

9:                                                ; preds = %1, %6
  %10 = phi i32 [ %.pre, %6 ], [ 0, %1 ]
  ret i32 %10
}